target datalayout = "e-m:e-p270:32:32-p271:32:32-p272:64:64-i64:64-i128:128-f80:128-n8:16:32:64-S128"
target triple = "x86_64-pc-linux-gnu"

%"class.std::__cxx11::basic_string" = type { %"struct.std::__cxx11::basic_string<char>::_Alloc_hider", i64, %union.anon }
%"struct.std::__cxx11::basic_string<char>::_Alloc_hider" = type { ptr }
%union.anon = type { i64, [8 x i8] }
%"class.rocksdb::Status" = type { i8, i8, i8, i8, i8, i8, %"class.std::unique_ptr" }
%"class.std::unique_ptr" = type { %"struct.std::__uniq_ptr_data" }
%"struct.std::__uniq_ptr_data" = type { %"class.std::__uniq_ptr_impl" }
%"class.std::__uniq_ptr_impl" = type { %"class.std::tuple" }
%"class.std::tuple" = type { %"struct.std::_Tuple_impl" }
%"struct.std::_Tuple_impl" = type { %"struct.std::_Head_base.1" }
%"struct.std::_Head_base.1" = type { ptr }
%"struct.rocksdb::FileState" = type { %"class.std::__cxx11::basic_string", i64, i64, i64 }
%class.anon.82 = type { ptr }
%"class.rocksdb::Random" = type { i32 }

; Function Attrs: mustprogress nounwind uwtable
define linkonce_odr noundef i32 @_ZN7rocksdb6Random4NextEv(ptr noundef nonnull align 4 dereferenceable(4) %0) #2 comdat align 2 {
  %2 = alloca ptr, align 8
  %3 = alloca i64, align 8
  store ptr %0, ptr %2, align 8, !tbaa !76
  %4 = load ptr, ptr %2, align 8
  call void @llvm.lifetime.start.p0(i64 8, ptr %3) #17
  %5 = getelementptr inbounds nuw %"class.rocksdb::Random", ptr %4, i32 0, i32 0
  %6 = load i32, ptr %5, align 4, !tbaa !345
  %7 = zext i32 %6 to i64
  %8 = mul i64 %7, 16807
  store i64 %8, ptr %3, align 8, !tbaa !9
  %9 = load i64, ptr %3, align 8, !tbaa !9
  %10 = lshr i64 %9, 31
  %11 = load i64, ptr %3, align 8, !tbaa !9
  %12 = and i64 %11, 2147483647
  %13 = add i64 %10, %12
  %14 = trunc i64 %13 to i32
  %15 = getelementptr inbounds nuw %"class.rocksdb::Random", ptr %4, i32 0, i32 0
  store i32 %14, ptr %15, align 4, !tbaa !345
  %16 = getelementptr inbounds nuw %"class.rocksdb::Random", ptr %4, i32 0, i32 0
  %17 = load i32, ptr %16, align 4, !tbaa !345
  %18 = icmp ugt i32 %17, 2147483647
  br i1 %18, label %19, label %23

19:                                               ; preds = %1
  %20 = getelementptr inbounds nuw %"class.rocksdb::Random", ptr %4, i32 0, i32 0
  %21 = load i32, ptr %20, align 4, !tbaa !345
  %22 = sub i32 %21, 2147483647
  store i32 %22, ptr %20, align 4, !tbaa !345
  br label %23

23:                                               ; preds = %19, %1
  %24 = getelementptr inbounds nuw %"class.rocksdb::Random", ptr %4, i32 0, i32 0
  %25 = load i32, ptr %24, align 4, !tbaa !345
  call void @llvm.lifetime.end.p0(i64 8, ptr %3) #17
  ret i32 %25
}

; Function Attrs: mustprogress uwtable
define linkonce_odr noundef i32 @_ZN7rocksdb6Random7UniformEi(ptr noundef nonnull align 4 dereferenceable(4) %0, i32 noundef %1) #0 comdat align 2 {
  %3 = alloca ptr, align 8
  %4 = alloca i32, align 4
  store ptr %0, ptr %3, align 8, !tbaa !76
  store i32 %1, ptr %4, align 4, !tbaa !79
  %5 = load ptr, ptr %3, align 8
  %6 = call noundef i32 @_ZN7rocksdb6Random4NextEv(ptr noundef nonnull align 4 dereferenceable(4) %5)
  %7 = load i32, ptr %4, align 4, !tbaa !79
  %8 = urem i32 %6, %7
  ret i32 %8
}

; Function Attrs: mustprogress uwtable
define void @_ZNK7rocksdb9FileState22DropRandomUnsyncedDataEPNS_3EnvEPNS_6RandomE(ptr dead_on_unwind noalias writable sret(%"class.rocksdb::Status") align 8 %0, ptr noundef nonnull align 8 dereferenceable(56) %1, ptr noundef %2, ptr noundef %3) #0 align 2 {
  %5 = alloca ptr, align 8
  %6 = alloca ptr, align 8
  %7 = alloca ptr, align 8
  %8 = alloca ptr, align 8
  %9 = alloca i64, align 8
  %10 = alloca i32, align 4
  %11 = alloca i64, align 8
  store ptr %0, ptr %5, align 8
  store ptr %1, ptr %6, align 8, !tbaa !72
  store ptr %2, ptr %7, align 8, !tbaa !15
  store ptr %3, ptr %8, align 8, !tbaa !76
  %12 = load ptr, ptr %6, align 8
  call void @llvm.lifetime.start.p0(i64 8, ptr %9) #17
  %13 = getelementptr inbounds nuw %"struct.rocksdb::FileState", ptr %12, i32 0, i32 2
  %14 = load i64, ptr %13, align 8, !tbaa !74
  %15 = icmp eq i64 %14, -1
  br i1 %15, label %16, label %17

16:                                               ; preds = %4
  br label %20

17:                                               ; preds = %4
  %18 = getelementptr inbounds nuw %"struct.rocksdb::FileState", ptr %12, i32 0, i32 2
  %19 = load i64, ptr %18, align 8, !tbaa !74
  br label %20

20:                                               ; preds = %17, %16
  %21 = phi i64 [ 0, %16 ], [ %19, %17 ]
  store i64 %21, ptr %9, align 8, !tbaa !9
  call void @llvm.lifetime.start.p0(i64 4, ptr %10) #17
  %22 = getelementptr inbounds nuw %"struct.rocksdb::FileState", ptr %12, i32 0, i32 1
  %23 = load i64, ptr %22, align 8, !tbaa !78
  %24 = load i64, ptr %9, align 8, !tbaa !9
  %25 = sub nsw i64 %23, %24
  %26 = trunc i64 %25 to i32
  store i32 %26, ptr %10, align 4, !tbaa !79
  call void @llvm.lifetime.start.p0(i64 8, ptr %11) #17
  %27 = load i64, ptr %9, align 8, !tbaa !9
  %28 = load ptr, ptr %8, align 8, !tbaa !76
  %29 = load i32, ptr %10, align 4, !tbaa !79
  %30 = call noundef i32 @_ZN7rocksdb6Random7UniformEi(ptr noundef nonnull align 4 dereferenceable(4) %28, i32 noundef %29)
  %31 = zext i32 %30 to i64
  %32 = add i64 %27, %31
  store i64 %32, ptr %11, align 8, !tbaa !9
  %33 = load ptr, ptr %7, align 8, !tbaa !15
  %34 = getelementptr inbounds nuw %"struct.rocksdb::FileState", ptr %12, i32 0, i32 0
  %35 = load i64, ptr %11, align 8, !tbaa !9
  call void @_ZN7rocksdb8TruncateEPNS_3EnvERKNSt7__cxx1112basic_stringIcSt11char_traitsIcESaIcEEEm(ptr dead_on_unwind writable sret(%"class.rocksdb::Status") align 8 %0, ptr noundef %33, ptr noundef nonnull align 8 dereferenceable(32) %34, i64 noundef %35)
  call void @llvm.lifetime.end.p0(i64 8, ptr %11) #17
  call void @llvm.lifetime.end.p0(i64 4, ptr %10) #17
  call void @llvm.lifetime.end.p0(i64 8, ptr %9) #17
  ret void
}

; Function Attrs: inlinehint mustprogress uwtable
define internal void @"_ZZN7rocksdb21FaultInjectionTestEnv26DropRandomUnsyncedFileDataEPNS_6RandomEENK3$_0clEPNS_3EnvERKNS_9FileStateE"(ptr dead_on_unwind noalias writable sret(%"class.rocksdb::Status") align 8 %0, ptr noundef nonnull align 8 dereferenceable(8) %1, ptr noundef %2, ptr noundef nonnull align 8 dereferenceable(56) %3) #7 align 2 {
  %5 = alloca ptr, align 8
  %6 = alloca ptr, align 8
  %7 = alloca ptr, align 8
  %8 = alloca ptr, align 8
  store ptr %0, ptr %5, align 8
  store ptr %1, ptr %6, align 8, !tbaa !244
  store ptr %2, ptr %7, align 8, !tbaa !15
  store ptr %3, ptr %8, align 8, !tbaa !72
  %9 = load ptr, ptr %6, align 8
  %10 = load ptr, ptr %8, align 8, !tbaa !72
  %11 = load ptr, ptr %7, align 8, !tbaa !15
  %12 = getelementptr inbounds nuw %class.anon.82, ptr %9, i32 0, i32 0
  %13 = load ptr, ptr %12, align 8, !tbaa !641
  %14 = load ptr, ptr %13, align 8, !tbaa !76
  call void @_ZNK7rocksdb9FileState22DropRandomUnsyncedDataEPNS_3EnvEPNS_6RandomE(ptr dead_on_unwind writable sret(%"class.rocksdb::Status") align 8 %0, ptr noundef nonnull align 8 dereferenceable(56) %10, ptr noundef %11, ptr noundef %14)
  ret void
}

; Function Attrs: mustprogress nounwind uwtable
define linkonce_odr noundef ptr @_ZNKSt9_Any_data9_M_accessEv(ptr noundef nonnull align 8 dereferenceable(16) %0) #2 comdat align 2 {
  %2 = alloca ptr, align 8
  store ptr %0, ptr %2, align 8, !tbaa !632
  %3 = load ptr, ptr %2, align 8
  %4 = getelementptr inbounds [16 x i8], ptr %3, i64 0, i64 0
  ret ptr %4
}

; Function Attrs: mustprogress uwtable
define internal void @"_ZSt13__invoke_implIN7rocksdb6StatusERZNS0_21FaultInjectionTestEnv26DropRandomUnsyncedFileDataEPNS0_6RandomEE3$_0JPNS0_3EnvENS0_9FileStateEEET_St14__invoke_otherOT0_DpOT1_"(ptr dead_on_unwind noalias writable sret(%"class.rocksdb::Status") align 8 %0, ptr noundef nonnull align 8 dereferenceable(8) %1, ptr noundef nonnull align 8 dereferenceable(8) %2, ptr noundef nonnull align 8 dereferenceable(56) %3) #0 {
  %5 = alloca ptr, align 8
  %6 = alloca ptr, align 8
  %7 = alloca ptr, align 8
  %8 = alloca ptr, align 8
  store ptr %0, ptr %5, align 8
  store ptr %1, ptr %6, align 8, !tbaa !244
  store ptr %2, ptr %7, align 8, !tbaa !634
  store ptr %3, ptr %8, align 8, !tbaa !72
  %9 = load ptr, ptr %6, align 8, !tbaa !244
  %10 = load ptr, ptr %7, align 8, !tbaa !634
  %11 = load ptr, ptr %10, align 8, !tbaa !15
  %12 = load ptr, ptr %8, align 8, !tbaa !72
  call void @"_ZZN7rocksdb21FaultInjectionTestEnv26DropRandomUnsyncedFileDataEPNS_6RandomEENK3$_0clEPNS_3EnvERKNS_9FileStateE"(ptr dead_on_unwind writable sret(%"class.rocksdb::Status") align 8 %0, ptr noundef nonnull align 8 dereferenceable(8) %9, ptr noundef %11, ptr noundef nonnull align 8 dereferenceable(56) %12)
  ret void
}

; Function Attrs: mustprogress nounwind uwtable
define internal noundef nonnull align 8 dereferenceable(8) ptr @"_ZNKSt9_Any_data9_M_accessIZN7rocksdb21FaultInjectionTestEnv26DropRandomUnsyncedFileDataEPNS1_6RandomEE3$_0EERKT_v"(ptr noundef nonnull align 8 dereferenceable(16) %0) #2 align 2 {
  %2 = alloca ptr, align 8
  store ptr %0, ptr %2, align 8, !tbaa !632
  %3 = load ptr, ptr %2, align 8
  %4 = call noundef ptr @_ZNKSt9_Any_data9_M_accessEv(ptr noundef nonnull align 8 dereferenceable(16) %3) #17
  ret ptr %4
}

; Function Attrs: mustprogress uwtable
define internal void @"_ZSt10__invoke_rIN7rocksdb6StatusERZNS0_21FaultInjectionTestEnv26DropRandomUnsyncedFileDataEPNS0_6RandomEE3$_0JPNS0_3EnvENS0_9FileStateEEENSt9enable_ifIX16is_invocable_r_vIT_T0_DpT1_EESB_E4typeEOSC_DpOSD_"(ptr dead_on_unwind noalias writable sret(%"class.rocksdb::Status") align 8 %0, ptr noundef nonnull align 8 dereferenceable(8) %1, ptr noundef nonnull align 8 dereferenceable(8) %2, ptr noundef nonnull align 8 dereferenceable(56) %3) #0 {
  %5 = alloca ptr, align 8
  %6 = alloca ptr, align 8
  %7 = alloca ptr, align 8
  %8 = alloca ptr, align 8
  store ptr %0, ptr %5, align 8
  store ptr %1, ptr %6, align 8, !tbaa !244
  store ptr %2, ptr %7, align 8, !tbaa !634
  store ptr %3, ptr %8, align 8, !tbaa !72
  %9 = load ptr, ptr %6, align 8, !tbaa !244
  %10 = load ptr, ptr %7, align 8, !tbaa !634
  %11 = load ptr, ptr %8, align 8, !tbaa !72
  call void @"_ZSt13__invoke_implIN7rocksdb6StatusERZNS0_21FaultInjectionTestEnv26DropRandomUnsyncedFileDataEPNS0_6RandomEE3$_0JPNS0_3EnvENS0_9FileStateEEET_St14__invoke_otherOT0_DpOT1_"(ptr dead_on_unwind writable sret(%"class.rocksdb::Status") align 8 %0, ptr noundef nonnull align 8 dereferenceable(8) %9, ptr noundef nonnull align 8 dereferenceable(8) %10, ptr noundef nonnull align 8 dereferenceable(56) %11)
  ret void
}

; Function Attrs: mustprogress nounwind uwtable
define internal noundef ptr @"_ZNSt14_Function_base13_Base_managerIZN7rocksdb21FaultInjectionTestEnv26DropRandomUnsyncedFileDataEPNS1_6RandomEE3$_0E14_M_get_pointerERKSt9_Any_data"(ptr noundef nonnull align 8 dereferenceable(16) %0) #2 align 2 {
  %2 = alloca ptr, align 8
  %3 = alloca ptr, align 8
  store ptr %0, ptr %2, align 8, !tbaa !632
  call void @llvm.lifetime.start.p0(i64 8, ptr %3) #17
  %4 = load ptr, ptr %2, align 8, !tbaa !632
  %5 = call noundef nonnull align 8 dereferenceable(8) ptr @"_ZNKSt9_Any_data9_M_accessIZN7rocksdb21FaultInjectionTestEnv26DropRandomUnsyncedFileDataEPNS1_6RandomEE3$_0EERKT_v"(ptr noundef nonnull align 8 dereferenceable(16) %4) #17
  store ptr %5, ptr %3, align 8, !tbaa !244
  %6 = load ptr, ptr %3, align 8, !tbaa !244
  call void @llvm.lifetime.end.p0(i64 8, ptr %3) #17
  ret ptr %6
}

; Function Attrs: mustprogress uwtable
define internal void @"_ZNSt17_Function_handlerIFN7rocksdb6StatusEPNS0_3EnvENS0_9FileStateEEZNS0_21FaultInjectionTestEnv26DropRandomUnsyncedFileDataEPNS0_6RandomEE3$_0E9_M_invokeERKSt9_Any_dataOS3_OS4_"(ptr dead_on_unwind noalias writable sret(%"class.rocksdb::Status") align 8 %0, ptr noundef nonnull align 8 dereferenceable(16) %1, ptr noundef nonnull align 8 dereferenceable(8) %2, ptr noundef nonnull align 8 dereferenceable(56) %3) #0 align 2 {
  %5 = alloca ptr, align 8
  %6 = alloca ptr, align 8
  %7 = alloca ptr, align 8
  %8 = alloca ptr, align 8
  store ptr %0, ptr %5, align 8
  store ptr %1, ptr %6, align 8, !tbaa !632
  store ptr %2, ptr %7, align 8, !tbaa !634
  store ptr %3, ptr %8, align 8, !tbaa !72
  %9 = load ptr, ptr %6, align 8, !tbaa !632
  %10 = call noundef ptr @"_ZNSt14_Function_base13_Base_managerIZN7rocksdb21FaultInjectionTestEnv26DropRandomUnsyncedFileDataEPNS1_6RandomEE3$_0E14_M_get_pointerERKSt9_Any_data"(ptr noundef nonnull align 8 dereferenceable(16) %9) #17
  %11 = load ptr, ptr %7, align 8, !tbaa !634
  %12 = load ptr, ptr %8, align 8, !tbaa !72
  call void @"_ZSt10__invoke_rIN7rocksdb6StatusERZNS0_21FaultInjectionTestEnv26DropRandomUnsyncedFileDataEPNS0_6RandomEE3$_0JPNS0_3EnvENS0_9FileStateEEENSt9enable_ifIX16is_invocable_r_vIT_T0_DpT1_EESB_E4typeEOSC_DpOSD_"(ptr dead_on_unwind writable sret(%"class.rocksdb::Status") align 8 %0, ptr noundef nonnull align 8 dereferenceable(8) %10, ptr noundef nonnull align 8 dereferenceable(8) %11, ptr noundef nonnull align 8 dereferenceable(56) %12)
  ret void
}