; Function Attrs: mustprogress uwtable
define internal void @"_ZNSt17_Function_handlerIFN7rocksdb6StatusEPNS0_3EnvENS0_9FileStateEEZNS0_21FaultInjectionTestEnv26DropRandomUnsyncedFileDataEPNS0_6RandomEE3$_0E9_M_invokeERKSt9_Any_dataOS3_OS4_"(ptr dead_on_unwind noalias writable sret(%"class.rocksdb::Status") align 8 %0, ptr noundef nonnull readonly align 8 captures(none) dereferenceable(16) %1, ptr noundef nonnull readonly align 8 captures(none) dereferenceable(8) %2, ptr noundef nonnull align 8 dereferenceable(56) %3) #0 align 2 {
  %.val = load ptr, ptr %1, align 8, !tbaa !358
  %.val3 = load ptr, ptr %2, align 8, !tbaa !272
  %.val.val = load ptr, ptr %.val, align 8, !tbaa !281
  %5 = getelementptr inbounds nuw i8, ptr %3, i64 40
  %6 = load i64, ptr %5, align 8, !tbaa !81, !noalias !360
  %7 = icmp eq i64 %6, -1
  %spec.select.i.i.i.i = select i1 %7, i64 0, i64 %6
  %8 = getelementptr inbounds nuw i8, ptr %3, i64 32
  %9 = load i64, ptr %8, align 8, !tbaa !83, !noalias !360
  %10 = sub nsw i64 %9, %spec.select.i.i.i.i
  %11 = trunc i64 %10 to i32
  %12 = load i32, ptr %.val.val, align 4, !tbaa !84, !noalias !360
  %13 = zext i32 %12 to i64
  %14 = mul nuw nsw i64 %13, 16807
  %15 = lshr i64 %14, 31
  %16 = and i64 %14, 2147483647
  %17 = add nuw nsw i64 %15, %16
  %18 = trunc nuw i64 %17 to i32
  %19 = icmp slt i32 %18, 0
  %20 = add i32 %18, -2147483647
  %spec.select.i.i.i.i.i.i = select i1 %19, i32 %20, i32 %18
  store i32 %spec.select.i.i.i.i.i.i, ptr %.val.val, align 4, !tbaa !84, !noalias !360
  %21 = urem i32 %spec.select.i.i.i.i.i.i, %11
  %22 = zext i32 %21 to i64
  %23 = add i64 %spec.select.i.i.i.i, %22
  tail call void @_ZN7rocksdb8TruncateEPNS_3EnvERKNSt7__cxx1112basic_stringIcSt11char_traitsIcESaIcEEEm(ptr dead_on_unwind writable sret(%"class.rocksdb::Status") align 8 %0, ptr noundef %.val3, ptr noundef nonnull align 8 dereferenceable(56) %3, i64 noundef %23)
  ret void
}